; ModuleID = '57/884.c'
source_filename = "57/884.c"
target datalayout = "e-m:e-p270:32:32-p271:32:32-p272:64:64-i64:64-f80:128-n8:16:32:64-S128"
target triple = "x86_64-pc-linux-gnu"

@.str = private unnamed_addr constant [3 x i8] c"%d\00", align 1
@.str.1 = private unnamed_addr constant [3 x i8] c"%s\00", align 1
@.str.2 = private unnamed_addr constant [3 x i8] c"er\00", align 1
@.str.3 = private unnamed_addr constant [3 x i8] c"ly\00", align 1
@.str.4 = private unnamed_addr constant [4 x i8] c"ing\00", align 1
@.str.5 = private unnamed_addr constant [4 x i8] c"%s\0A\00", align 1

; Function Attrs: noinline nounwind uwtable
define dso_local i32 @main() #0 {
  %1 = alloca i32, align 4
  %2 = alloca i32, align 4
  %3 = alloca i32, align 4
  %4 = alloca i32, align 4
  %5 = alloca [50 x [33 x i8]], align 16
  store i32 0, i32* %1, align 4
  %6 = call i32 (i8*, ...) @__isoc99_scanf(i8* getelementptr inbounds ([3 x i8], [3 x i8]* @.str, i64 0, i64 0), i32* %3)
  store i32 0, i32* %2, align 4
  br label %7

7:                                                ; preds = %16, %0
  %8 = load i32, i32* %2, align 4
  %9 = load i32, i32* %3, align 4
  %10 = icmp slt i32 %8, %9
  br i1 %10, label %11, label %19

11:                                               ; preds = %7
  %12 = load i32, i32* %2, align 4
  %13 = sext i32 %12 to i64
  %14 = getelementptr inbounds [50 x [33 x i8]], [50 x [33 x i8]]* %5, i64 0, i64 %13
  %15 = call i32 (i8*, ...) @__isoc99_scanf(i8* getelementptr inbounds ([3 x i8], [3 x i8]* @.str.1, i64 0, i64 0), [33 x i8]* %14)
  br label %16

16:                                               ; preds = %11
  %17 = load i32, i32* %2, align 4
  %18 = add nsw i32 %17, 1
  store i32 %18, i32* %2, align 4
  br label %7

19:                                               ; preds = %7
  store i32 0, i32* %2, align 4
  br label %20

20:                                               ; preds = %96, %19
  %21 = load i32, i32* %2, align 4
  %22 = load i32, i32* %3, align 4
  %23 = icmp slt i32 %21, %22
  br i1 %23, label %24, label %99

24:                                               ; preds = %20
  %25 = load i32, i32* %2, align 4
  %26 = sext i32 %25 to i64
  %27 = getelementptr inbounds [50 x [33 x i8]], [50 x [33 x i8]]* %5, i64 0, i64 %26
  %28 = getelementptr inbounds [33 x i8], [33 x i8]* %27, i64 0, i64 0
  %29 = call i64 @strlen(i8* %28) #3
  %30 = trunc i64 %29 to i32
  store i32 %30, i32* %4, align 4
  %31 = load i32, i32* %2, align 4
  %32 = sext i32 %31 to i64
  %33 = getelementptr inbounds [50 x [33 x i8]], [50 x [33 x i8]]* %5, i64 0, i64 %32
  %34 = load i32, i32* %4, align 4
  %35 = sub nsw i32 %34, 2
  %36 = sext i32 %35 to i64
  %37 = getelementptr inbounds [33 x i8], [33 x i8]* %33, i64 0, i64 %36
  %38 = call i32 @strcmp(i8* %37, i8* getelementptr inbounds ([3 x i8], [3 x i8]* @.str.2, i64 0, i64 0)) #3
  %39 = icmp eq i32 %38, 0
  br i1 %39, label %40, label %51

40:                                               ; preds = %24
  %41 = load i32, i32* %4, align 4
  %42 = icmp sgt i32 %41, 2
  br i1 %42, label %43, label %51

43:                                               ; preds = %40
  %44 = load i32, i32* %2, align 4
  %45 = sext i32 %44 to i64
  %46 = getelementptr inbounds [50 x [33 x i8]], [50 x [33 x i8]]* %5, i64 0, i64 %45
  %47 = load i32, i32* %4, align 4
  %48 = sub nsw i32 %47, 2
  %49 = sext i32 %48 to i64
  %50 = getelementptr inbounds [33 x i8], [33 x i8]* %46, i64 0, i64 %49
  store i8 0, i8* %50, align 1
  br label %95

51:                                               ; preds = %40, %24
  %52 = load i32, i32* %2, align 4
  %53 = sext i32 %52 to i64
  %54 = getelementptr inbounds [50 x [33 x i8]], [50 x [33 x i8]]* %5, i64 0, i64 %53
  %55 = load i32, i32* %4, align 4
  %56 = sub nsw i32 %55, 2
  %57 = sext i32 %56 to i64
  %58 = getelementptr inbounds [33 x i8], [33 x i8]* %54, i64 0, i64 %57
  %59 = call i32 @strcmp(i8* %58, i8* getelementptr inbounds ([3 x i8], [3 x i8]* @.str.3, i64 0, i64 0)) #3
  %60 = icmp eq i32 %59, 0
  br i1 %60, label %61, label %72

61:                                               ; preds = %51
  %62 = load i32, i32* %4, align 4
  %63 = icmp sgt i32 %62, 2
  br i1 %63, label %64, label %72

64:                                               ; preds = %61
  %65 = load i32, i32* %2, align 4
  %66 = sext i32 %65 to i64
  %67 = getelementptr inbounds [50 x [33 x i8]], [50 x [33 x i8]]* %5, i64 0, i64 %66
  %68 = load i32, i32* %4, align 4
  %69 = sub nsw i32 %68, 2
  %70 = sext i32 %69 to i64
  %71 = getelementptr inbounds [33 x i8], [33 x i8]* %67, i64 0, i64 %70
  store i8 0, i8* %71, align 1
  br label %94

72:                                               ; preds = %61, %51
  %73 = load i32, i32* %2, align 4
  %74 = sext i32 %73 to i64
  %75 = getelementptr inbounds [50 x [33 x i8]], [50 x [33 x i8]]* %5, i64 0, i64 %74
  %76 = load i32, i32* %4, align 4
  %77 = sub nsw i32 %76, 3
  %78 = sext i32 %77 to i64
  %79 = getelementptr inbounds [33 x i8], [33 x i8]* %75, i64 0, i64 %78
  %80 = call i32 @strcmp(i8* %79, i8* getelementptr inbounds ([4 x i8], [4 x i8]* @.str.4, i64 0, i64 0)) #3
  %81 = icmp eq i32 %80, 0
  br i1 %81, label %82, label %93

82:                                               ; preds = %72
  %83 = load i32, i32* %4, align 4
  %84 = icmp sgt i32 %83, 3
  br i1 %84, label %85, label %93

85:                                               ; preds = %82
  %86 = load i32, i32* %2, align 4
  %87 = sext i32 %86 to i64
  %88 = getelementptr inbounds [50 x [33 x i8]], [50 x [33 x i8]]* %5, i64 0, i64 %87
  %89 = load i32, i32* %4, align 4
  %90 = sub nsw i32 %89, 3
  %91 = sext i32 %90 to i64
  %92 = getelementptr inbounds [33 x i8], [33 x i8]* %88, i64 0, i64 %91
  store i8 0, i8* %92, align 1
  br label %93

93:                                               ; preds = %85, %82, %72
  br label %94

94:                                               ; preds = %93, %64
  br label %95

95:                                               ; preds = %94, %43
  br label %96

96:                                               ; preds = %95
  %97 = load i32, i32* %2, align 4
  %98 = add nsw i32 %97, 1
  store i32 %98, i32* %2, align 4
  br label %20

99:                                               ; preds = %20
  store i32 0, i32* %2, align 4
  br label %100

100:                                              ; preds = %110, %99
  %101 = load i32, i32* %2, align 4
  %102 = load i32, i32* %3, align 4
  %103 = icmp slt i32 %101, %102
  br i1 %103, label %104, label %113

104:                                              ; preds = %100
  %105 = load i32, i32* %2, align 4
  %106 = sext i32 %105 to i64
  %107 = getelementptr inbounds [50 x [33 x i8]], [50 x [33 x i8]]* %5, i64 0, i64 %106
  %108 = getelementptr inbounds [33 x i8], [33 x i8]* %107, i64 0, i64 0
  %109 = call i32 (i8*, ...) @printf(i8* getelementptr inbounds ([4 x i8], [4 x i8]* @.str.5, i64 0, i64 0), i8* %108)
  br label %110

110:                                              ; preds = %104
  %111 = load i32, i32* %2, align 4
  %112 = add nsw i32 %111, 1
  store i32 %112, i32* %2, align 4
  br label %100

113:                                              ; preds = %100
  ret i32 0
}

declare dso_local i32 @__isoc99_scanf(i8*, ...) #1

; Function Attrs: nounwind readonly
declare dso_local i64 @strlen(i8*) #2

; Function Attrs: nounwind readonly
declare dso_local i32 @strcmp(i8*, i8*) #2

declare dso_local i32 @printf(i8*, ...) #1


!llvm.module.flags = !{!0}
!llvm.ident = !{!1}

!0 = !{i32 1, !"wchar_size", i32 4}
!1 = !{!"clang version 10.0.0-4ubuntu1 "}
